	.cpu cortex-m4
	.eabi_attribute 27, 1
	.eabi_attribute 28, 1
	.eabi_attribute 20, 1
	.eabi_attribute 21, 1
	.eabi_attribute 23, 3
	.eabi_attribute 24, 1
	.eabi_attribute 25, 1
	.eabi_attribute 26, 1
	.eabi_attribute 30, 4
	.eabi_attribute 34, 1
	.eabi_attribute 18, 4
	.file	"drv_led.c"
	.text
.Ltext0:
	.section	.text.play_not_connected,"ax",%progbits
	.align	1
	.global	play_not_connected
	.syntax unified
	.thumb
	.thumb_func
	.fpu fpv4-sp-d16
	.type	play_not_connected, %function
play_not_connected:
.LFB267:
	.file 1 "C:\\Users\\Alex\\Desktop\\CodaNRF_local\\CodaNRF\\application\\src\\drv_led.c"
	.loc 1 29 1 view -0
	@ args = 0, pretend = 0, frame = 32
	@ frame_needed = 0, uses_anonymous_args = 0
	.loc 1 30 5 view .LVU1
.LVL0:
	.loc 1 31 5 view .LVU2
	.loc 1 32 5 view .LVU3
	.loc 1 33 5 view .LVU4
	.loc 1 34 5 view .LVU5
	.loc 1 35 5 view .LVU6
.LBB52:
	.loc 1 35 10 view .LVU7
	.loc 1 35 10 is_stmt 0 view .LVU8
.LBE52:
	.loc 1 29 1 view .LVU9
	push	{r4, lr}
.LCFI0:
	.loc 1 32 14 view .LVU10
	movs	r3, #0
	ldr	r2, .L12
	.loc 1 29 1 view .LVU11
	sub	sp, sp, #32
.LCFI1:
.LBB53:
	.loc 1 43 37 view .LVU12
	mov	r1, r3
.LVL1:
.L2:
	.loc 1 41 9 is_stmt 1 discriminator 3 view .LVU13
	.loc 1 41 25 is_stmt 0 discriminator 3 view .LVU14
	adds	r3, r3, #27
.LVL2:
	.loc 1 41 25 discriminator 3 view .LVU15
	uxth	r3, r3
.LVL3:
	.loc 1 42 9 is_stmt 1 discriminator 3 view .LVU16
	.loc 1 35 5 is_stmt 0 discriminator 3 view .LVU17
	cmp	r3, #972
	.loc 1 42 51 discriminator 3 view .LVU18
	strh	r3, [r2, #72]	@ movhi
	.loc 1 43 9 is_stmt 1 discriminator 3 view .LVU19
	.loc 1 43 37 is_stmt 0 discriminator 3 view .LVU20
	strh	r1, [r2], #2	@ movhi
	.loc 1 35 5 discriminator 3 view .LVU21
	bne	.L2
.LBE53:
	.loc 1 46 5 is_stmt 1 view .LVU22
	.loc 1 46 13 is_stmt 0 view .LVU23
	ldr	r4, .L12+4
	.loc 1 46 7 view .LVU24
	ldr	r3, [r4]
.LVL4:
	.loc 1 46 7 view .LVU25
	cbz	r3, .L3
	.loc 1 48 9 is_stmt 1 view .LVU26
	.loc 1 49 9 is_stmt 0 view .LVU27
	ldr	r0, .L12+8
	.loc 1 48 20 view .LVU28
	str	r1, [r4]
	.loc 1 49 9 is_stmt 1 view .LVU29
	bl	nrf_drv_pwm_uninit
.LVL5:
.L3:
	.loc 1 51 5 view .LVU30
	.loc 1 51 16 is_stmt 0 view .LVU31
	ldr	r2, .L12+12
	str	r2, [r4]
	.loc 1 52 5 is_stmt 1 view .LVU32
	.loc 1 52 26 is_stmt 0 view .LVU33
	ldr	r4, .L12+16
	ldr	r0, [r4]	@ unaligned
	ldr	r1, [r4, #4]	@ unaligned
	add	r3, sp, #4
	stmia	r3!, {r0, r1}
	ldr	r0, [r4, #8]	@ unaligned
	str	r0, [r3]
	.loc 1 53 5 is_stmt 1 view .LVU34
	.loc 1 54 22 is_stmt 0 view .LVU35
	add	r1, sp, #4
	.loc 1 53 30 view .LVU36
	movs	r3, #18
	.loc 1 54 22 view .LVU37
	ldr	r0, .L12+8
	.loc 1 53 30 view .LVU38
	strb	r3, [sp, #4]
	.loc 1 54 5 is_stmt 1 view .LVU39
	.loc 1 54 22 is_stmt 0 view .LVU40
	bl	nrf_drv_pwm_init
.LVL6:
	.loc 1 55 5 is_stmt 1 view .LVU41
	.loc 1 55 7 is_stmt 0 view .LVU42
	cbz	r0, .L4
	.loc 1 57 9 is_stmt 1 view .LVU43
	.loc 1 57 9 view .LVU44
	ldr	r3, .L12+20
	ldr	r1, .L12+24
	movs	r2, #57
	movs	r0, #0
.LVL7:
	.loc 1 57 9 is_stmt 0 view .LVU45
	bl	mdw_log
.LVL8:
.L4:
	.loc 1 57 40 is_stmt 1 discriminator 1 view .LVU46
	.loc 1 60 5 discriminator 1 view .LVU47
	.loc 1 60 30 is_stmt 0 discriminator 1 view .LVU48
	ldr	r3, .L12+28
	ldm	r3, {r0, r1, r2, r3}
	add	r4, sp, #16
	stm	r4, {r0, r1, r2, r3}
	.loc 1 67 5 is_stmt 1 discriminator 1 view .LVU49
	movs	r3, #0
	movs	r2, #5
	mov	r1, r4
	ldr	r0, .L12+8
	bl	nrf_drv_pwm_simple_playback
.LVL9:
	.loc 1 68 1 is_stmt 0 discriminator 1 view .LVU50
	add	sp, sp, #32
.LCFI2:
	@ sp needed
	pop	{r4, pc}
.L13:
	.align	2
.L12:
	.word	.LANCHOR0
	.word	.LANCHOR1
	.word	.LANCHOR2
	.word	pwm_cb
	.word	.LANCHOR3
	.word	.LC2
	.word	.LC3
	.word	.LANCHOR3+12
.LFE267:
	.size	play_not_connected, .-play_not_connected
	.section	.text.pwm_cb,"ax",%progbits
	.align	1
	.syntax unified
	.thumb
	.thumb_func
	.fpu fpv4-sp-d16
	.type	pwm_cb, %function
pwm_cb:
.LVL10:
.LFB270:
	.loc 1 85 1 is_stmt 1 view -0
	@ args = 0, pretend = 0, frame = 0
	@ frame_needed = 0, uses_anonymous_args = 0
	.loc 1 86 2 view .LVU52
	.loc 1 86 2 view .LVU53
	.loc 1 85 1 is_stmt 0 view .LVU54
	push	{r3, lr}
.LCFI3:
	.loc 1 86 2 view .LVU55
	movs	r2, #86
	ldr	r3, .L16
	ldr	r1, .L16+4
	movs	r0, #0
.LVL11:
	.loc 1 86 2 view .LVU56
	bl	mdw_log
.LVL12:
	.loc 1 86 17 is_stmt 1 view .LVU57
	.loc 1 87 5 view .LVU58
	.loc 1 87 16 is_stmt 0 view .LVU59
	ldr	r3, .L16+8
	.loc 1 87 7 view .LVU60
	ldrb	r3, [r3]	@ zero_extendqisi2
	cmp	r3, #1
	bne	.L14
	.loc 1 89 9 is_stmt 1 view .LVU61
	.loc 1 91 1 is_stmt 0 view .LVU62
	pop	{r3, lr}
.LCFI4:
	.loc 1 89 9 view .LVU63
	b	play_not_connected
.LVL13:
.L14:
.LCFI5:
	.loc 1 91 1 view .LVU64
	pop	{r3, pc}
.L17:
	.align	2
.L16:
	.word	.LC2
	.word	.LC5
	.word	.LANCHOR4
.LFE270:
	.size	pwm_cb, .-pwm_cb
	.section	.text.drv_led_set_mode,"ax",%progbits
	.align	1
	.global	drv_led_set_mode
	.syntax unified
	.thumb
	.thumb_func
	.fpu fpv4-sp-d16
	.type	drv_led_set_mode, %function
drv_led_set_mode:
.LVL14:
.LFB268:
	.loc 1 72 1 is_stmt 1 view -0
	@ args = 0, pretend = 0, frame = 0
	@ frame_needed = 0, uses_anonymous_args = 0
	@ link register save eliminated.
	.loc 1 74 1 view .LVU66
	bx	lr
.LFE268:
	.size	drv_led_set_mode, .-drv_led_set_mode
	.section	.text.drv_led_init,"ax",%progbits
	.align	1
	.global	drv_led_init
	.syntax unified
	.thumb
	.thumb_func
	.fpu fpv4-sp-d16
	.type	drv_led_init, %function
drv_led_init:
.LFB269:
	.loc 1 77 1 view -0
	@ args = 0, pretend = 0, frame = 0
	@ frame_needed = 0, uses_anonymous_args = 0
	@ link register save eliminated.
	.loc 1 78 5 view .LVU68
	.loc 1 78 13 is_stmt 0 view .LVU69
	ldr	r3, .L20
	movs	r2, #1
	strb	r2, [r3]
	.loc 1 79 5 is_stmt 1 view .LVU70
.LVL15:
.LBB54:
.LBI54:
	.file 2 "C:/Users/Alex/Desktop/CodaNRF_local/CodaNRF/nRF5_SDK/components/drivers_nrf/hal/nrf_gpio.h"
	.loc 2 522 22 view .LVU71
.LBE54:
	.loc 2 524 5 view .LVU72
.LBB59:
.LBB55:
.LBI55:
	.loc 2 504 22 view .LVU73
.LBB56:
	.loc 2 512 5 view .LVU74
	.loc 2 512 5 is_stmt 0 view .LVU75
.LBE56:
.LBE55:
.LBE59:
	.loc 2 464 5 is_stmt 1 view .LVU76
	.loc 2 464 5 view .LVU77
	.loc 2 464 36 view .LVU78
	.loc 2 467 5 view .LVU79
.LBB60:
.LBB58:
.LBB57:
	.loc 2 514 5 view .LVU80
	.loc 2 514 30 is_stmt 0 view .LVU81
	mov	r3, #1342177280
	movs	r2, #3
	str	r2, [r3, #1864]
.LVL16:
	.loc 2 514 30 view .LVU82
.LBE57:
.LBE58:
.LBE60:
	.loc 1 80 5 is_stmt 1 view .LVU83
.LBB61:
.LBI61:
	.loc 2 622 22 view .LVU84
.LBB62:
	.loc 2 624 5 view .LVU85
	.loc 2 624 5 is_stmt 0 view .LVU86
.LBE62:
.LBE61:
	.loc 2 464 5 is_stmt 1 view .LVU87
	.loc 2 464 5 view .LVU88
	.loc 2 464 36 view .LVU89
	.loc 2 467 5 view .LVU90
.LBB66:
.LBB65:
	.loc 2 626 5 view .LVU91
.LBB63:
.LBI63:
	.loc 2 728 22 view .LVU92
.LBB64:
	.loc 2 730 5 view .LVU93
	.loc 2 730 19 is_stmt 0 view .LVU94
	mov	r2, #262144
	str	r2, [r3, #1288]
.LVL17:
	.loc 2 730 19 view .LVU95
.LBE64:
.LBE63:
.LBE65:
.LBE66:
	.loc 1 81 5 is_stmt 1 view .LVU96
	b	play_not_connected
.LVL18:
.L21:
	.align	2
.L20:
	.word	.LANCHOR4
.LFE269:
	.size	drv_led_init, .-drv_led_init
	.section	.text.drv_led_set,"ax",%progbits
	.align	1
	.global	drv_led_set
	.syntax unified
	.thumb
	.thumb_func
	.fpu fpv4-sp-d16
	.type	drv_led_set, %function
drv_led_set:
.LVL19:
.LFB271:
	.loc 1 94 1 view -0
	@ args = 0, pretend = 0, frame = 0
	@ frame_needed = 0, uses_anonymous_args = 0
	@ link register save eliminated.
	.loc 1 95 5 view .LVU98
	subs	r0, r0, #1
.LVL20:
	.loc 1 95 5 is_stmt 0 view .LVU99
	cmp	r0, #3
	bhi	.L22
	tbb	[pc, r0]
.L25:
	.byte	(.L28-.L25)/2
	.byte	(.L24-.L25)/2
	.byte	(.L24-.L25)/2
	.byte	(.L24-.L25)/2
	.p2align 1
.L28:
	.loc 1 99 13 is_stmt 1 view .LVU100
.LVL21:
.LBB67:
.LBI67:
	.loc 2 630 22 view .LVU101
.LBB68:
	.loc 2 632 5 view .LVU102
	.loc 2 632 5 is_stmt 0 view .LVU103
.LBE68:
.LBE67:
	.loc 2 464 5 is_stmt 1 view .LVU104
	.loc 2 464 5 view .LVU105
	.loc 2 464 36 view .LVU106
	.loc 2 467 5 view .LVU107
.LBB72:
.LBB71:
	.loc 2 634 5 view .LVU108
.LBB69:
.LBI69:
	.loc 2 734 22 view .LVU109
.LBB70:
	.loc 2 736 5 view .LVU110
	.loc 2 736 19 is_stmt 0 view .LVU111
	mov	r3, #1342177280
	mov	r2, #262144
	str	r2, [r3, #1292]
.LVL22:
	.loc 2 736 19 view .LVU112
	bx	lr
.LVL23:
.L24:
	.loc 2 736 19 view .LVU113
.LBE70:
.LBE69:
.LBE71:
.LBE72:
	.loc 1 114 13 is_stmt 1 view .LVU114
.LBB73:
.LBI73:
	.loc 2 622 22 view .LVU115
.LBB74:
	.loc 2 624 5 view .LVU116
	.loc 2 624 5 is_stmt 0 view .LVU117
.LBE74:
.LBE73:
	.loc 2 464 5 is_stmt 1 view .LVU118
	.loc 2 464 5 view .LVU119
	.loc 2 464 36 view .LVU120
	.loc 2 467 5 view .LVU121
.LBB78:
.LBB77:
	.loc 2 626 5 view .LVU122
.LBB75:
.LBI75:
	.loc 2 728 22 view .LVU123
.LBB76:
	.loc 2 730 5 view .LVU124
	.loc 2 730 19 is_stmt 0 view .LVU125
	mov	r3, #1342177280
	mov	r2, #262144
	str	r2, [r3, #1288]
.LVL24:
.L22:
	.loc 2 730 19 view .LVU126
.LBE76:
.LBE75:
.LBE77:
.LBE78:
	.loc 1 122 1 view .LVU127
	bx	lr
.LFE271:
	.size	drv_led_set, .-drv_led_set
	.global	fsmMode
	.section .rodata
	.align	2
	.set	.LANCHOR3,. + 0
.LC0:
	.byte	31
	.byte	31
	.byte	31
	.byte	31
	.byte	7
	.byte	4
	.byte	0
	.space	1
	.short	1000
	.byte	0
	.byte	0
.LC4:
	.word	fade_in_out_values.9440
	.short	72
	.space	2
	.word	7
	.word	0
	.section	.bss.fade_in_out_values.9440,"aw",%nobits
	.align	1
	.set	.LANCHOR0,. + 0
	.type	fade_in_out_values.9440, %object
	.size	fade_in_out_values.9440, 144
fade_in_out_values.9440:
	.space	144
	.section	.bss.fsmMode,"aw",%nobits
	.set	.LANCHOR4,. + 0
	.type	fsmMode, %object
	.size	fsmMode, 1
fsmMode:
	.space	1
	.section	.bss.pwmHandler,"aw",%nobits
	.align	2
	.set	.LANCHOR1,. + 0
	.type	pwmHandler, %object
	.size	pwmHandler, 4
pwmHandler:
	.space	4
	.section	.data.pwmInstance,"aw"
	.align	2
	.set	.LANCHOR2,. + 0
	.type	pwmInstance, %object
	.size	pwmInstance, 8
pwmInstance:
	.word	1073856512
	.byte	0
	.space	3
	.section	.rodata.play_not_connected.str1.1,"aMS",%progbits,1
.LC2:
	.ascii	"C:\\Users\\Alex\\Desktop\\CodaNRF_local\\CodaNRF\\a"
	.ascii	"pplication\\src\\drv_led.c\000"
.LC3:
	.ascii	"nrf_drv_pwm_init error\000"
	.section	.rodata.pwm_cb.str1.1,"aMS",%progbits,1
.LC5:
	.ascii	"pwb cb\000"
	.section	.debug_frame,"",%progbits
.Lframe0:
	.4byte	.LECIE0-.LSCIE0
.LSCIE0:
	.4byte	0xffffffff
	.byte	0x3
	.ascii	"\000"
	.uleb128 0x1
	.sleb128 -4
	.uleb128 0xe
	.byte	0xc
	.uleb128 0xd
	.uleb128 0
	.align	2
.LECIE0:
.LSFDE0:
	.4byte	.LEFDE0-.LASFDE0
.LASFDE0:
	.4byte	.Lframe0
	.4byte	.LFB267
	.4byte	.LFE267-.LFB267
	.byte	0x4
	.4byte	.LCFI0-.LFB267
	.byte	0xe
	.uleb128 0x8
	.byte	0x84
	.uleb128 0x2
	.byte	0x8e
	.uleb128 0x1
	.byte	0x4
	.4byte	.LCFI1-.LCFI0
	.byte	0xe
	.uleb128 0x28
	.byte	0x4
	.4byte	.LCFI2-.LCFI1
	.byte	0xe
	.uleb128 0x8
	.align	2
.LEFDE0:
.LSFDE2:
	.4byte	.LEFDE2-.LASFDE2
.LASFDE2:
	.4byte	.Lframe0
	.4byte	.LFB270
	.4byte	.LFE270-.LFB270
	.byte	0x4
	.4byte	.LCFI3-.LFB270
	.byte	0xe
	.uleb128 0x8
	.byte	0x83
	.uleb128 0x2
	.byte	0x8e
	.uleb128 0x1
	.byte	0x4
	.4byte	.LCFI4-.LCFI3
	.byte	0xa
	.byte	0xce
	.byte	0xc3
	.byte	0xe
	.uleb128 0
	.byte	0x4
	.4byte	.LCFI5-.LCFI4
	.byte	0xb
	.align	2
.LEFDE2:
.LSFDE4:
	.4byte	.LEFDE4-.LASFDE4
.LASFDE4:
	.4byte	.Lframe0
	.4byte	.LFB268
	.4byte	.LFE268-.LFB268
	.align	2
.LEFDE4:
.LSFDE6:
	.4byte	.LEFDE6-.LASFDE6
.LASFDE6:
	.4byte	.Lframe0
	.4byte	.LFB269
	.4byte	.LFE269-.LFB269
	.align	2
.LEFDE6:
.LSFDE8:
	.4byte	.LEFDE8-.LASFDE8
.LASFDE8:
	.4byte	.Lframe0
	.4byte	.LFB271
	.4byte	.LFE271-.LFB271
	.align	2
.LEFDE8:
	.text
.Letext0:
	.file 3 "C:/Program Files/SEGGER/SEGGER Embedded Studio for ARM 4.16/include/__crossworks.h"
	.file 4 "C:/Program Files/SEGGER/SEGGER Embedded Studio for ARM 4.16/include/stdint.h"
	.file 5 "C:/Users/Alex/Desktop/CodaNRF_local/CodaNRF/nRF5_SDK/components/toolchain/cmsis/include/core_cm4.h"
	.file 6 "C:/Users/Alex/Desktop/CodaNRF_local/CodaNRF/nRF5_SDK/components/toolchain/system_nrf52.h"
	.file 7 "C:/Users/Alex/Desktop/CodaNRF_local/CodaNRF/nRF5_SDK/components/device/nrf52.h"
	.file 8 "C:/Users/Alex/Desktop/CodaNRF_local/CodaNRF/nRF5_SDK/components/softdevice/s132/headers/nrf_nvic.h"
	.file 9 "C:/Program Files/SEGGER/SEGGER Embedded Studio for ARM 4.16/include/stdio.h"
	.file 10 "C:/Users/Alex/Desktop/CodaNRF_local/CodaNRF/nRF5_SDK/components/libraries/util/sdk_errors.h"
	.file 11 "C:/Users/Alex/Desktop/CodaNRF_local/CodaNRF/nRF5_SDK/components/libraries/util/app_util.h"
	.file 12 "C:/Users/Alex/Desktop/CodaNRF_local/CodaNRF/nRF5_SDK/components/drivers_nrf/hal/nrf_pwm.h"
	.file 13 "C:/Users/Alex/Desktop/CodaNRF_local/CodaNRF/nRF5_SDK/components/drivers_nrf/pwm/nrf_drv_pwm.h"
	.file 14 "C:/Users/Alex/Desktop/CodaNRF_local/CodaNRF/application/inc/drv_led.h"
	.file 15 "C:/Users/Alex/Desktop/CodaNRF_local/CodaNRF/application/inc/mdw_log.h"